; Function Attrs: mustprogress nounwind uwtable
define hidden noundef ptr @_ZN17ArchiveHeapWriter27source_obj_to_requested_objEP7oopDesc(ptr noundef %0) local_unnamed_addr #0 align 2 {
  %2 = alloca ptr, align 8
  store ptr %0, ptr %2, align 8
  %3 = load ptr, ptr @_ZN10HeapShared22_archived_object_cacheE, align 8
  %4 = call noundef i32 @_ZN10HeapShared8oop_hashERKP7oopDesc(ptr noundef nonnull align 8 dereferenceable(8) %2) #18
  %5 = load i32, ptr %3, align 8
  %6 = urem i32 %4, %5
  %7 = getelementptr inbounds i8, ptr %3, i64 8
  %8 = load ptr, ptr %7, align 8
  %9 = zext i32 %6 to i64
  %10 = getelementptr inbounds ptr, ptr %8, i64 %9
  %11 = load ptr, ptr %10, align 8
  %.not11.i.i.i = icmp eq ptr %11, null
  br i1 %.not11.i.i.i, label %_ZNK21ResourceHashtableBaseI34ResizeableResourceHashtableStorageIP7oopDescN10HeapShared13CachedOopInfoELN6AnyObj15allocation_typeE2EL8MEMFLAGS13EES2_S4_LS6_2ELS7_13EXadL_ZNS3_8oop_hashERKS2_EEXadL_Z16primitive_equalsIS2_EbRKT_SE_EEE3getESA_.exit.thread, label %.lr.ph.i.i.i

.lr.ph.i.i.i:                                     ; preds = %1
  %12 = load ptr, ptr %2, align 8
  br label %13

13:                                               ; preds = %21, %.lr.ph.i.i.i
  %14 = phi ptr [ %11, %.lr.ph.i.i.i ], [ %23, %21 ]
  %15 = load i32, ptr %14, align 8
  %16 = icmp eq i32 %15, %4
  br i1 %16, label %17, label %21

17:                                               ; preds = %13
  %18 = getelementptr inbounds i8, ptr %14, i64 8
  %19 = load ptr, ptr %18, align 8
  %20 = icmp eq ptr %12, %19
  br i1 %20, label %24, label %21

21:                                               ; preds = %17, %13
  %22 = getelementptr inbounds i8, ptr %14, i64 40
  %23 = load ptr, ptr %22, align 8
  %.not.i.i.i = icmp eq ptr %23, null
  br i1 %.not.i.i.i, label %_ZNK21ResourceHashtableBaseI34ResizeableResourceHashtableStorageIP7oopDescN10HeapShared13CachedOopInfoELN6AnyObj15allocation_typeE2EL8MEMFLAGS13EES2_S4_LS6_2ELS7_13EXadL_ZNS3_8oop_hashERKS2_EEXadL_Z16primitive_equalsIS2_EbRKT_SE_EEE3getESA_.exit.thread, label %13, !llvm.loop !12

24:                                               ; preds = %17
  %25 = getelementptr inbounds i8, ptr %14, i64 24
  %26 = load i64, ptr %25, align 8
  %27 = load ptr, ptr @_ZN17ArchiveHeapWriter17_requested_bottomE, align 8
  %28 = getelementptr inbounds i8, ptr %27, i64 %26
  br label %_ZNK21ResourceHashtableBaseI34ResizeableResourceHashtableStorageIP7oopDescN10HeapShared13CachedOopInfoELN6AnyObj15allocation_typeE2EL8MEMFLAGS13EES2_S4_LS6_2ELS7_13EXadL_ZNS3_8oop_hashERKS2_EEXadL_Z16primitive_equalsIS2_EbRKT_SE_EEE3getESA_.exit.thread

_ZNK21ResourceHashtableBaseI34ResizeableResourceHashtableStorageIP7oopDescN10HeapShared13CachedOopInfoELN6AnyObj15allocation_typeE2EL8MEMFLAGS13EES2_S4_LS6_2ELS7_13EXadL_ZNS3_8oop_hashERKS2_EEXadL_Z16primitive_equalsIS2_EbRKT_SE_EEE3getESA_.exit.thread: ; preds = %21, %1, %24
  %.0 = phi ptr [ %28, %24 ], [ null, %1 ], [ null, %21 ]
  ret ptr %.0
}